target datalayout = "e-m:e-p270:32:32-p271:32:32-p272:64:64-i64:64-i128:128-f80:128-n8:16:32:64-S128"
target triple = "x86_64-pc-linux-gnu"

%class.anon = type { i8 }

; Function Attrs: inlinehint mustprogress uwtable
define internal void @"_ZZN8nanobind6detail11capsule_newEPKvPKcPDoFvPvEENK3$_0clEP7_object"(ptr noundef nonnull align 1 dereferenceable(1) %0, ptr noundef %1) #13 align 2 {
  %3 = alloca ptr, align 8
  %4 = alloca ptr, align 8
  %5 = alloca ptr, align 8
  store ptr %0, ptr %3, align 8
  store ptr %1, ptr %4, align 8
  call void @llvm.lifetime.start.p0(i64 8, ptr %5) #20
  %6 = load ptr, ptr %4, align 8
  %7 = call ptr @PyCapsule_GetContext(ptr noundef %6)
  store ptr %7, ptr %5, align 8
  %8 = load ptr, ptr %5, align 8
  %9 = icmp ne ptr %8, null
  br i1 %9, label %10, label %16

10:                                               ; preds = %2
  %11 = load ptr, ptr %5, align 8
  %12 = load ptr, ptr %4, align 8
  %13 = load ptr, ptr %4, align 8
  %14 = call ptr @PyCapsule_GetName(ptr noundef %13)
  %15 = call ptr @PyCapsule_GetPointer(ptr noundef %12, ptr noundef %14)
  call void %11(ptr noundef %15)
  br label %16

16:                                               ; preds = %10, %2
  call void @llvm.lifetime.end.p0(i64 8, ptr %5) #20
  ret void
}

; Function Attrs: inlinehint mustprogress uwtable
define internal void @"_ZZN8nanobind6detail11capsule_newEPKvPKcPDoFvPvEEN3$_08__invokeEP7_object"(ptr noundef %0) #13 align 2 {
  %2 = alloca ptr, align 8
  %3 = alloca %class.anon, align 1
  store ptr %0, ptr %2, align 8
  %4 = load ptr, ptr %2, align 8
  call void @"_ZZN8nanobind6detail11capsule_newEPKvPKcPDoFvPvEENK3$_0clEP7_object"(ptr noundef nonnull align 1 dereferenceable(1) %3, ptr noundef %4)
  ret void
}