; Function Attrs: inlinehint mustprogress uwtable
define internal void @"_ZZN8nanobind6detail11capsule_newEPKvPKcPDoFvPvEEN3$_08__invokeEP7_object"(ptr noundef %0) #16 align 2 {
  %2 = tail call ptr @PyCapsule_GetContext(ptr noundef %0)
  %.not.i = icmp eq ptr %2, null
  br i1 %.not.i, label %"_ZZN8nanobind6detail11capsule_newEPKvPKcPDoFvPvEENK3$_0clEP7_object.exit", label %3

3:                                                ; preds = %1
  %4 = tail call ptr @PyCapsule_GetName(ptr noundef %0)
  %5 = tail call ptr @PyCapsule_GetPointer(ptr noundef %0, ptr noundef %4)
  tail call void %2(ptr noundef %5)
  br label %"_ZZN8nanobind6detail11capsule_newEPKvPKcPDoFvPvEENK3$_0clEP7_object.exit"

"_ZZN8nanobind6detail11capsule_newEPKvPKcPDoFvPvEENK3$_0clEP7_object.exit": ; preds = %1, %3
  ret void
}